target datalayout = "e-m:e-p270:32:32-p271:32:32-p272:64:64-i64:64-i128:128-f80:128-n8:16:32:64-S128"
target triple = "x86_64-pc-linux-gnu"

%struct.reftable_buf = type { i64, i64, ptr }

; Function Attrs: nounwind uwtable
define dso_local i64 @common_prefix_size(ptr noundef %0, ptr noundef %1) #0 {
  %3 = alloca ptr, align 8
  %4 = alloca ptr, align 8
  %5 = alloca i64, align 8
  store ptr %0, ptr %3, align 8, !tbaa !12
  store ptr %1, ptr %4, align 8, !tbaa !12
  call void @llvm.lifetime.start.p0(i64 8, ptr %5) #13
  store i64 0, ptr %5, align 8, !tbaa !4
  br label %6

6:                                                ; preds = %38, %2
  %7 = load i64, ptr %5, align 8, !tbaa !4
  %8 = load ptr, ptr %3, align 8, !tbaa !12
  %9 = getelementptr inbounds nuw %struct.reftable_buf, ptr %8, i32 0, i32 1
  %10 = load i64, ptr %9, align 8, !tbaa !18
  %11 = icmp ult i64 %7, %10
  br i1 %11, label %12, label %18

12:                                               ; preds = %6
  %13 = load i64, ptr %5, align 8, !tbaa !4
  %14 = load ptr, ptr %4, align 8, !tbaa !12
  %15 = getelementptr inbounds nuw %struct.reftable_buf, ptr %14, i32 0, i32 1
  %16 = load i64, ptr %15, align 8, !tbaa !18
  %17 = icmp ult i64 %13, %16
  br label %18

18:                                               ; preds = %12, %6
  %19 = phi i1 [ false, %6 ], [ %17, %12 ]
  br i1 %19, label %20, label %41

20:                                               ; preds = %18
  %21 = load ptr, ptr %3, align 8, !tbaa !12
  %22 = getelementptr inbounds nuw %struct.reftable_buf, ptr %21, i32 0, i32 2
  %23 = load ptr, ptr %22, align 8, !tbaa !15
  %24 = load i64, ptr %5, align 8, !tbaa !4
  %25 = getelementptr inbounds nuw i8, ptr %23, i64 %24
  %26 = load i8, ptr %25, align 1, !tbaa !19
  %27 = sext i8 %26 to i32
  %28 = load ptr, ptr %4, align 8, !tbaa !12
  %29 = getelementptr inbounds nuw %struct.reftable_buf, ptr %28, i32 0, i32 2
  %30 = load ptr, ptr %29, align 8, !tbaa !15
  %31 = load i64, ptr %5, align 8, !tbaa !4
  %32 = getelementptr inbounds nuw i8, ptr %30, i64 %31
  %33 = load i8, ptr %32, align 1, !tbaa !19
  %34 = sext i8 %33 to i32
  %35 = icmp ne i32 %27, %34
  br i1 %35, label %36, label %37

36:                                               ; preds = %20
  br label %41

37:                                               ; preds = %20
  br label %38

38:                                               ; preds = %37
  %39 = load i64, ptr %5, align 8, !tbaa !4
  %40 = add i64 %39, 1
  store i64 %40, ptr %5, align 8, !tbaa !4
  br label %6, !llvm.loop !35

41:                                               ; preds = %36, %18
  %42 = load i64, ptr %5, align 8, !tbaa !4
  call void @llvm.lifetime.end.p0(i64 8, ptr %5) #13
  ret i64 %42
}