; Function Attrs: nofree norecurse nosync nounwind memory(read, inaccessiblemem: none) uwtable
define dso_local i64 @common_prefix_size(ptr noundef readonly captures(none) %0, ptr noundef readonly captures(none) %1) local_unnamed_addr #15 {
  %3 = getelementptr inbounds nuw i8, ptr %0, i64 16
  %4 = getelementptr inbounds nuw i8, ptr %0, i64 8
  %5 = load i64, ptr %4, align 8, !tbaa !13
  %.not14 = icmp eq i64 %5, 0
  br i1 %.not14, label %.critedge, label %.lr.ph

.lr.ph:                                           ; preds = %2
  %6 = getelementptr inbounds nuw i8, ptr %1, i64 8
  %7 = load i64, ptr %6, align 8, !tbaa !13
  %8 = getelementptr inbounds nuw i8, ptr %1, i64 16
  br label %9

9:                                                ; preds = %.lr.ph, %17
  %.09 = phi i64 [ 0, %.lr.ph ], [ %18, %17 ]
  %exitcond.not = icmp eq i64 %.09, %7
  br i1 %exitcond.not, label %.critedge, label %10

10:                                               ; preds = %9
  %11 = load ptr, ptr %3, align 8, !tbaa !8
  %12 = getelementptr inbounds nuw i8, ptr %11, i64 %.09
  %13 = load i8, ptr %12, align 1, !tbaa !14
  %14 = load ptr, ptr %8, align 8, !tbaa !8
  %15 = getelementptr inbounds nuw i8, ptr %14, i64 %.09
  %16 = load i8, ptr %15, align 1, !tbaa !14
  %.not = icmp eq i8 %13, %16
  br i1 %.not, label %17, label %.critedge

17:                                               ; preds = %10
  %18 = add nuw i64 %.09, 1
  %exitcond15.not = icmp eq i64 %18, %5
  br i1 %exitcond15.not, label %.critedge, label %9, !llvm.loop !25

.critedge:                                        ; preds = %9, %10, %17, %2
  %.0.lcssa = phi i64 [ 0, %2 ], [ %5, %17 ], [ %.09, %10 ], [ %7, %9 ]
  ret i64 %.0.lcssa
}